target datalayout = "e-m:e-p270:32:32-p271:32:32-p272:64:64-i64:64-i128:128-f80:128-n8:16:32:64-S128"
target triple = "x86_64-unknown-linux-gnu"

%struct.timespec = type { i64, i64 }
%"class.EA::StdC::Stopwatch" = type { i64, i64, i32, float }

@_ZN12_GLOBAL__N_120mnStopwatchFrequencyE = internal global i64 1, align 8
@_ZN12_GLOBAL__N_137mfStopwatchCyclesToMinutesCoefficientE = internal global float 0.000000e+00, align 4
@_ZN12_GLOBAL__N_137mfStopwatchCyclesToSecondsCoefficientE = internal global float 0.000000e+00, align 4
@_ZN12_GLOBAL__N_142mfStopwatchCyclesToMillisecondsCoefficientE = internal global float 0.000000e+00, align 4
@_ZN12_GLOBAL__N_142mfStopwatchCyclesToMicrosecondsCoefficientE = internal global float 0.000000e+00, align 4
@_ZN12_GLOBAL__N_141mfStopwatchCyclesToNanosecondsCoefficientE = internal global float 0.000000e+00, align 4

; Function Attrs: mustprogress nounwind uwtable
define linkonce_odr dso_local noundef i64 @_ZN2EA4StdC9Stopwatch17GetStopwatchCycleEv() #1 comdat align 2 {
entry:
  %ts = alloca %struct.timespec, align 8
  %result = alloca i32, align 4
  %nNanoseconds = alloca i64, align 8
  %call = call i32 @clock_gettime(i32 noundef 1, ptr noundef %ts) #6
  store i32 %call, ptr %result, align 4
  %0 = load i32, ptr %result, align 4
  %cmp = icmp eq i32 %0, 22
  br i1 %cmp, label %if.then, label %if.end

if.then:                                          ; preds = %entry
  %call1 = call i32 @clock_gettime(i32 noundef 0, ptr noundef %ts) #6
  store i32 %call1, ptr %result, align 4
  br label %if.end

if.end:                                           ; preds = %if.then, %entry
  %tv_nsec = getelementptr inbounds %struct.timespec, ptr %ts, i32 0, i32 1
  %1 = load i64, ptr %tv_nsec, align 8
  %tv_sec = getelementptr inbounds %struct.timespec, ptr %ts, i32 0, i32 0
  %2 = load i64, ptr %tv_sec, align 8
  %mul = mul i64 %2, 1000000000
  %add = add i64 %1, %mul
  store i64 %add, ptr %nNanoseconds, align 8
  %3 = load i64, ptr %nNanoseconds, align 8
  ret i64 %3
}

; Function Attrs: mustprogress nounwind uwtable
define linkonce_odr dso_local noundef i64 @_ZN2EA4StdC9Stopwatch11GetCPUCycleEv() #1 comdat align 2 {
entry:
  %0 = call i64 @llvm.x86.rdtsc()
  ret i64 %0
}

; Function Attrs: mustprogress nounwind uwtable
define linkonce_odr dso_local void @_ZN2EA4StdC9Stopwatch5StartEv(ptr noundef nonnull align 8 dereferenceable(24) %this) #1 comdat align 2 {
entry:
  %this.addr = alloca ptr, align 8
  store ptr %this, ptr %this.addr, align 8
  %this1 = load ptr, ptr %this.addr, align 8
  %mnStartTime = getelementptr inbounds %"class.EA::StdC::Stopwatch", ptr %this1, i32 0, i32 0
  %0 = load i64, ptr %mnStartTime, align 8
  %tobool = icmp ne i64 %0, 0
  br i1 %tobool, label %if.end6, label %if.then

if.then:                                          ; preds = %entry
  %mnUnits = getelementptr inbounds %"class.EA::StdC::Stopwatch", ptr %this1, i32 0, i32 2
  %1 = load i32, ptr %mnUnits, align 8
  %cmp = icmp eq i32 %1, 1
  br i1 %cmp, label %if.then2, label %if.else

if.then2:                                         ; preds = %if.then
  %call = call noundef i64 @_ZN2EA4StdC9Stopwatch11GetCPUCycleEv()
  %mnStartTime3 = getelementptr inbounds %"class.EA::StdC::Stopwatch", ptr %this1, i32 0, i32 0
  store i64 %call, ptr %mnStartTime3, align 8
  br label %if.end

if.else:                                          ; preds = %if.then
  %call4 = call noundef i64 @_ZN2EA4StdC9Stopwatch17GetStopwatchCycleEv()
  %mnStartTime5 = getelementptr inbounds %"class.EA::StdC::Stopwatch", ptr %this1, i32 0, i32 0
  store i64 %call4, ptr %mnStartTime5, align 8
  br label %if.end

if.end:                                           ; preds = %if.else, %if.then2
  br label %if.end6

if.end6:                                          ; preds = %if.end, %entry
  ret void
}

; Function Attrs: mustprogress nounwind uwtable
define dso_local void @_ZN2EA4StdC9Stopwatch8SetUnitsEi(ptr noundef nonnull align 8 dereferenceable(24) %this, i32 noundef %nUnits) #1 align 2 {
entry:
  %this.addr = alloca ptr, align 8
  %nUnits.addr = alloca i32, align 4
  store ptr %this, ptr %this.addr, align 8
  store i32 %nUnits, ptr %nUnits.addr, align 4
  %this1 = load ptr, ptr %this.addr, align 8
  %0 = load i32, ptr %nUnits.addr, align 4
  %mnUnits = getelementptr inbounds %"class.EA::StdC::Stopwatch", ptr %this1, i32 0, i32 2
  store i32 %0, ptr %mnUnits, align 8
  %mfStopwatchCyclesToUnitsCoefficient = getelementptr inbounds %"class.EA::StdC::Stopwatch", ptr %this1, i32 0, i32 3
  store float 1.000000e+00, ptr %mfStopwatchCyclesToUnitsCoefficient, align 4
  %mnUnits2 = getelementptr inbounds %"class.EA::StdC::Stopwatch", ptr %this1, i32 0, i32 2
  %1 = load i32, ptr %mnUnits2, align 8
  switch i32 %1, label %sw.epilog [
    i32 1, label %sw.bb
    i32 0, label %sw.bb4
    i32 2, label %sw.bb6
    i32 3, label %sw.bb8
    i32 4, label %sw.bb10
    i32 5, label %sw.bb12
    i32 6, label %sw.bb14
  ]

sw.bb:                                            ; preds = %entry
  %mfStopwatchCyclesToUnitsCoefficient3 = getelementptr inbounds %"class.EA::StdC::Stopwatch", ptr %this1, i32 0, i32 3
  store float 1.000000e+00, ptr %mfStopwatchCyclesToUnitsCoefficient3, align 4
  br label %sw.epilog

sw.bb4:                                           ; preds = %entry
  %mfStopwatchCyclesToUnitsCoefficient5 = getelementptr inbounds %"class.EA::StdC::Stopwatch", ptr %this1, i32 0, i32 3
  store float 1.000000e+00, ptr %mfStopwatchCyclesToUnitsCoefficient5, align 4
  br label %sw.epilog

sw.bb6:                                           ; preds = %entry
  %2 = load float, ptr @_ZN12_GLOBAL__N_141mfStopwatchCyclesToNanosecondsCoefficientE, align 4
  %mfStopwatchCyclesToUnitsCoefficient7 = getelementptr inbounds %"class.EA::StdC::Stopwatch", ptr %this1, i32 0, i32 3
  store float %2, ptr %mfStopwatchCyclesToUnitsCoefficient7, align 4
  br label %sw.epilog

sw.bb8:                                           ; preds = %entry
  %3 = load float, ptr @_ZN12_GLOBAL__N_142mfStopwatchCyclesToMicrosecondsCoefficientE, align 4
  %mfStopwatchCyclesToUnitsCoefficient9 = getelementptr inbounds %"class.EA::StdC::Stopwatch", ptr %this1, i32 0, i32 3
  store float %3, ptr %mfStopwatchCyclesToUnitsCoefficient9, align 4
  br label %sw.epilog

sw.bb10:                                          ; preds = %entry
  %4 = load float, ptr @_ZN12_GLOBAL__N_142mfStopwatchCyclesToMillisecondsCoefficientE, align 4
  %mfStopwatchCyclesToUnitsCoefficient11 = getelementptr inbounds %"class.EA::StdC::Stopwatch", ptr %this1, i32 0, i32 3
  store float %4, ptr %mfStopwatchCyclesToUnitsCoefficient11, align 4
  br label %sw.epilog

sw.bb12:                                          ; preds = %entry
  %5 = load float, ptr @_ZN12_GLOBAL__N_137mfStopwatchCyclesToSecondsCoefficientE, align 4
  %mfStopwatchCyclesToUnitsCoefficient13 = getelementptr inbounds %"class.EA::StdC::Stopwatch", ptr %this1, i32 0, i32 3
  store float %5, ptr %mfStopwatchCyclesToUnitsCoefficient13, align 4
  br label %sw.epilog

sw.bb14:                                          ; preds = %entry
  %6 = load float, ptr @_ZN12_GLOBAL__N_137mfStopwatchCyclesToMinutesCoefficientE, align 4
  %mfStopwatchCyclesToUnitsCoefficient15 = getelementptr inbounds %"class.EA::StdC::Stopwatch", ptr %this1, i32 0, i32 3
  store float %6, ptr %mfStopwatchCyclesToUnitsCoefficient15, align 4
  br label %sw.epilog

sw.epilog:                                        ; preds = %sw.bb14, %sw.bb12, %sw.bb10, %sw.bb8, %sw.bb6, %sw.bb4, %sw.bb, %entry
  ret void
}

; Function Attrs: mustprogress uwtable
define dso_local void @_ZN2EA4StdC9StopwatchC2Eib(ptr noundef nonnull align 8 dereferenceable(24) %this, i32 noundef %nUnits, i1 noundef zeroext %bStartImmediately) unnamed_addr #0 align 2 {
entry:
  %this.addr = alloca ptr, align 8
  %nUnits.addr = alloca i32, align 4
  %bStartImmediately.addr = alloca i8, align 1
  store ptr %this, ptr %this.addr, align 8
  store i32 %nUnits, ptr %nUnits.addr, align 4
  %frombool = zext i1 %bStartImmediately to i8
  store i8 %frombool, ptr %bStartImmediately.addr, align 1
  %this1 = load ptr, ptr %this.addr, align 8
  %mnStartTime = getelementptr inbounds %"class.EA::StdC::Stopwatch", ptr %this1, i32 0, i32 0
  store i64 0, ptr %mnStartTime, align 8
  %mnTotalElapsedTime = getelementptr inbounds %"class.EA::StdC::Stopwatch", ptr %this1, i32 0, i32 1
  store i64 0, ptr %mnTotalElapsedTime, align 8
  %mnUnits = getelementptr inbounds %"class.EA::StdC::Stopwatch", ptr %this1, i32 0, i32 2
  store i32 0, ptr %mnUnits, align 8
  %mfStopwatchCyclesToUnitsCoefficient = getelementptr inbounds %"class.EA::StdC::Stopwatch", ptr %this1, i32 0, i32 3
  store float 1.000000e+00, ptr %mfStopwatchCyclesToUnitsCoefficient, align 4
  %0 = load i32, ptr %nUnits.addr, align 4
  call void @_ZN2EA4StdC9Stopwatch8SetUnitsEi(ptr noundef nonnull align 8 dereferenceable(24) %this1, i32 noundef %0)
  %1 = load i64, ptr @_ZN12_GLOBAL__N_120mnStopwatchFrequencyE, align 8
  %cmp = icmp ule i64 %1, 1
  br i1 %cmp, label %if.then, label %if.end

if.then:                                          ; preds = %entry
  call void @_Z20EAStdCStopwatchSetupv()
  br label %if.end

if.end:                                           ; preds = %if.then, %entry
  %2 = load i8, ptr %bStartImmediately.addr, align 1
  %tobool = trunc i8 %2 to i1
  br i1 %tobool, label %if.then2, label %if.end3

if.then2:                                         ; preds = %if.end
  call void @_ZN2EA4StdC9Stopwatch5StartEv(ptr noundef nonnull align 8 dereferenceable(24) %this1)
  br label %if.end3

if.end3:                                          ; preds = %if.then2, %if.end
  ret void
}