; Function Attrs: mustprogress uwtable
define dso_local void @_ZN2EA4StdC9StopwatchC2Eib(ptr noundef nonnull align 8 captures(none) dereferenceable(24) initializes((0, 24)) %this, i32 noundef %nUnits, i1 noundef zeroext %bStartImmediately) unnamed_addr #1 align 2 {
entry:
  %ts.i.i = alloca %struct.timespec, align 8
  %mnUnits = getelementptr inbounds nuw i8, ptr %this, i64 16
  %mfStopwatchCyclesToUnitsCoefficient = getelementptr inbounds nuw i8, ptr %this, i64 20
  tail call void @llvm.memset.p0.i64(ptr noundef nonnull align 8 dereferenceable(16) %this, i8 0, i64 16, i1 false)
  store i32 %nUnits, ptr %mnUnits, align 8
  store float 1.000000e+00, ptr %mfStopwatchCyclesToUnitsCoefficient, align 4
  %switch.tableidx = add i32 %nUnits, -2
  %0 = icmp ult i32 %switch.tableidx, 5
  br i1 %0, label %switch.lookup, label %_ZN2EA4StdC9Stopwatch8SetUnitsEi.exit

switch.lookup:                                    ; preds = %entry
  %1 = zext nneg i32 %switch.tableidx to i64
  %switch.gep = getelementptr inbounds nuw [5 x ptr], ptr @switch.table._ZNK2EA4StdC9Stopwatch14GetElapsedTimeEv, i64 0, i64 %1
  %switch.load = load ptr, ptr %switch.gep, align 8
  %2 = load float, ptr %switch.load, align 4
  store float %2, ptr %mfStopwatchCyclesToUnitsCoefficient, align 4
  br label %_ZN2EA4StdC9Stopwatch8SetUnitsEi.exit

_ZN2EA4StdC9Stopwatch8SetUnitsEi.exit:            ; preds = %entry, %switch.lookup
  %.b = load i1, ptr @_ZN12_GLOBAL__N_120mnStopwatchFrequencyE, align 8
  br i1 %.b, label %if.end, label %if.then

if.then:                                          ; preds = %_ZN2EA4StdC9Stopwatch8SetUnitsEi.exit
  tail call void @_Z20EAStdCStopwatchSetupv()
  %.pre = load i64, ptr %this, align 8
  %3 = icmp eq i64 %.pre, 0
  br label %if.end

if.end:                                           ; preds = %if.then, %_ZN2EA4StdC9Stopwatch8SetUnitsEi.exit
  %tobool.not.i = phi i1 [ %3, %if.then ], [ true, %_ZN2EA4StdC9Stopwatch8SetUnitsEi.exit ]
  %or.cond = select i1 %bStartImmediately, i1 %tobool.not.i, i1 false
  br i1 %or.cond, label %if.then.i, label %if.end3

if.then.i:                                        ; preds = %if.end
  %4 = load i32, ptr %mnUnits, align 8
  %cmp.i = icmp eq i32 %4, 1
  br i1 %cmp.i, label %if.then2.i, label %if.else.i

if.then2.i:                                       ; preds = %if.then.i
  %5 = tail call noundef i64 @llvm.x86.rdtsc()
  br label %if.end6.sink.split.i

if.else.i:                                        ; preds = %if.then.i
  call void @llvm.lifetime.start.p0(i64 16, ptr nonnull %ts.i.i)
  %call.i.i = call i32 @clock_gettime(i32 noundef 1, ptr noundef nonnull %ts.i.i) #7
  %cmp.i.i = icmp eq i32 %call.i.i, 22
  br i1 %cmp.i.i, label %if.then.i.i, label %_ZN2EA4StdC9Stopwatch17GetStopwatchCycleEv.exit.i

if.then.i.i:                                      ; preds = %if.else.i
  %call1.i.i = call i32 @clock_gettime(i32 noundef 0, ptr noundef nonnull %ts.i.i) #7
  br label %_ZN2EA4StdC9Stopwatch17GetStopwatchCycleEv.exit.i

_ZN2EA4StdC9Stopwatch17GetStopwatchCycleEv.exit.i: ; preds = %if.then.i.i, %if.else.i
  %tv_nsec.i.i = getelementptr inbounds nuw i8, ptr %ts.i.i, i64 8
  %6 = load i64, ptr %tv_nsec.i.i, align 8
  %7 = load i64, ptr %ts.i.i, align 8
  %mul.i.i = mul i64 %7, 1000000000
  %add.i.i = add i64 %mul.i.i, %6
  call void @llvm.lifetime.end.p0(i64 16, ptr nonnull %ts.i.i)
  br label %if.end6.sink.split.i

if.end6.sink.split.i:                             ; preds = %_ZN2EA4StdC9Stopwatch17GetStopwatchCycleEv.exit.i, %if.then2.i
  %.sink.i = phi i64 [ %5, %if.then2.i ], [ %add.i.i, %_ZN2EA4StdC9Stopwatch17GetStopwatchCycleEv.exit.i ]
  store i64 %.sink.i, ptr %this, align 8
  br label %if.end3

if.end3:                                          ; preds = %if.end6.sink.split.i, %if.end
  ret void
}